target datalayout = "e-m:e-p270:32:32-p271:32:32-p272:64:64-i64:64-i128:128-f80:128-n8:16:32:64-S128"
target triple = "x86_64-pc-linux-gnu"

; Function Attrs: nounwind uwtable
define internal void @crossfade_samples_s16(ptr noundef %0, ptr noundef %1, ptr noundef %2, i32 noundef %3, i32 noundef %4, i32 noundef %5, i32 noundef %6) #1 {
  %8 = alloca ptr, align 8
  %9 = alloca ptr, align 8
  %10 = alloca ptr, align 8
  %11 = alloca i32, align 4
  %12 = alloca i32, align 4
  %13 = alloca i32, align 4
  %14 = alloca i32, align 4
  %15 = alloca ptr, align 8
  %16 = alloca ptr, align 8
  %17 = alloca ptr, align 8
  %18 = alloca i32, align 4
  %19 = alloca i32, align 4
  %20 = alloca i32, align 4
  %21 = alloca double, align 8
  %22 = alloca double, align 8
  store ptr %0, ptr %8, align 8, !tbaa !77
  store ptr %1, ptr %9, align 8, !tbaa !77
  store ptr %2, ptr %10, align 8, !tbaa !77
  store i32 %3, ptr %11, align 4, !tbaa !30
  store i32 %4, ptr %12, align 4, !tbaa !30
  store i32 %5, ptr %13, align 4, !tbaa !30
  store i32 %6, ptr %14, align 4, !tbaa !30
  call void @llvm.lifetime.start.p0(i64 8, ptr %15) #10
  %23 = load ptr, ptr %8, align 8, !tbaa !77
  %24 = getelementptr inbounds ptr, ptr %23, i64 0
  %25 = load ptr, ptr %24, align 8, !tbaa !29
  store ptr %25, ptr %15, align 8, !tbaa !100
  call void @llvm.lifetime.start.p0(i64 8, ptr %16) #10
  %26 = load ptr, ptr %9, align 8, !tbaa !77
  %27 = getelementptr inbounds ptr, ptr %26, i64 0
  %28 = load ptr, ptr %27, align 8, !tbaa !29
  store ptr %28, ptr %16, align 8, !tbaa !100
  call void @llvm.lifetime.start.p0(i64 8, ptr %17) #10
  %29 = load ptr, ptr %10, align 8, !tbaa !77
  %30 = getelementptr inbounds ptr, ptr %29, i64 0
  %31 = load ptr, ptr %30, align 8, !tbaa !29
  store ptr %31, ptr %17, align 8, !tbaa !100
  call void @llvm.lifetime.start.p0(i64 4, ptr %18) #10
  call void @llvm.lifetime.start.p0(i64 4, ptr %19) #10
  call void @llvm.lifetime.start.p0(i64 4, ptr %20) #10
  store i32 0, ptr %20, align 4, !tbaa !30
  store i32 0, ptr %18, align 4, !tbaa !30
  br label %32

32:                                               ; preds = %86, %7
  %33 = load i32, ptr %18, align 4, !tbaa !30
  %34 = load i32, ptr %11, align 4, !tbaa !30
  %35 = icmp slt i32 %33, %34
  br i1 %35, label %36, label %89

36:                                               ; preds = %32
  call void @llvm.lifetime.start.p0(i64 8, ptr %21) #10
  %37 = load i32, ptr %13, align 4, !tbaa !30
  %38 = load i32, ptr %11, align 4, !tbaa !30
  %39 = sub nsw i32 %38, 1
  %40 = load i32, ptr %18, align 4, !tbaa !30
  %41 = sub nsw i32 %39, %40
  %42 = sext i32 %41 to i64
  %43 = load i32, ptr %11, align 4, !tbaa !30
  %44 = sext i32 %43 to i64
  %45 = call nsz double @fade_gain(i32 noundef %37, i64 noundef %42, i64 noundef %44, double noundef 0.000000e+00, double noundef 1.000000e+00)
  store double %45, ptr %21, align 8, !tbaa !78
  call void @llvm.lifetime.start.p0(i64 8, ptr %22) #10
  %46 = load i32, ptr %14, align 4, !tbaa !30
  %47 = load i32, ptr %18, align 4, !tbaa !30
  %48 = sext i32 %47 to i64
  %49 = load i32, ptr %11, align 4, !tbaa !30
  %50 = sext i32 %49 to i64
  %51 = call nsz double @fade_gain(i32 noundef %46, i64 noundef %48, i64 noundef %50, double noundef 0.000000e+00, double noundef 1.000000e+00)
  store double %51, ptr %22, align 8, !tbaa !78
  store i32 0, ptr %19, align 4, !tbaa !30
  br label %52

52:                                               ; preds = %80, %36
  %53 = load i32, ptr %19, align 4, !tbaa !30
  %54 = load i32, ptr %12, align 4, !tbaa !30
  %55 = icmp slt i32 %53, %54
  br i1 %55, label %56, label %85

56:                                               ; preds = %52
  %57 = load ptr, ptr %16, align 8, !tbaa !100
  %58 = load i32, ptr %20, align 4, !tbaa !30
  %59 = sext i32 %58 to i64
  %60 = getelementptr inbounds i16, ptr %57, i64 %59
  %61 = load i16, ptr %60, align 2, !tbaa !102
  %62 = sext i16 %61 to i32
  %63 = sitofp i32 %62 to double
  %64 = load double, ptr %21, align 8, !tbaa !78
  %65 = load ptr, ptr %17, align 8, !tbaa !100
  %66 = load i32, ptr %20, align 4, !tbaa !30
  %67 = sext i32 %66 to i64
  %68 = getelementptr inbounds i16, ptr %65, i64 %67
  %69 = load i16, ptr %68, align 2, !tbaa !102
  %70 = sext i16 %69 to i32
  %71 = sitofp i32 %70 to double
  %72 = load double, ptr %22, align 8, !tbaa !78
  %73 = fmul nsz double %71, %72
  %74 = call nsz double @llvm.fmuladd.f64(double %63, double %64, double %73)
  %75 = fptosi double %74 to i16
  %76 = load ptr, ptr %15, align 8, !tbaa !100
  %77 = load i32, ptr %20, align 4, !tbaa !30
  %78 = sext i32 %77 to i64
  %79 = getelementptr inbounds i16, ptr %76, i64 %78
  store i16 %75, ptr %79, align 2, !tbaa !102
  br label %80

80:                                               ; preds = %56
  %81 = load i32, ptr %19, align 4, !tbaa !30
  %82 = add nsw i32 %81, 1
  store i32 %82, ptr %19, align 4, !tbaa !30
  %83 = load i32, ptr %20, align 4, !tbaa !30
  %84 = add nsw i32 %83, 1
  store i32 %84, ptr %20, align 4, !tbaa !30
  br label %52, !llvm.loop !131

85:                                               ; preds = %52
  call void @llvm.lifetime.end.p0(i64 8, ptr %22) #10
  call void @llvm.lifetime.end.p0(i64 8, ptr %21) #10
  br label %86

86:                                               ; preds = %85
  %87 = load i32, ptr %18, align 4, !tbaa !30
  %88 = add nsw i32 %87, 1
  store i32 %88, ptr %18, align 4, !tbaa !30
  br label %32, !llvm.loop !132

89:                                               ; preds = %32
  call void @llvm.lifetime.end.p0(i64 4, ptr %20) #10
  call void @llvm.lifetime.end.p0(i64 4, ptr %19) #10
  call void @llvm.lifetime.end.p0(i64 4, ptr %18) #10
  call void @llvm.lifetime.end.p0(i64 8, ptr %17) #10
  call void @llvm.lifetime.end.p0(i64 8, ptr %16) #10
  call void @llvm.lifetime.end.p0(i64 8, ptr %15) #10
  ret void
}